target datalayout = "e-m:e-p270:32:32-p271:32:32-p272:64:64-i64:64-i128:128-f80:128-n8:16:32:64-S128"
target triple = "x86_64-pc-linux-gnu"

%struct.IPSourceFilters = type { i32, i32, ptr, ptr }
%struct.sockaddr_storage = type { i16, [118 x i8], i64 }
%struct.sockaddr_in = type { i16, i16, %struct.in_addr, [8 x i8] }
%struct.in_addr = type { i32 }
%struct.sockaddr_in6 = type { i16, i16, i32, %struct.in6_addr, i32 }
%struct.in6_addr = type { %union.anon }
%union.anon = type { [4 x i32] }

; Function Attrs: nounwind uwtable
define internal i32 @compare_addr(ptr noundef %0, ptr noundef %1) #0 {
  %3 = alloca i32, align 4
  %4 = alloca ptr, align 8
  %5 = alloca ptr, align 8
  %6 = alloca ptr, align 8
  %7 = alloca ptr, align 8
  store ptr %0, ptr %4, align 8, !tbaa !4
  store ptr %1, ptr %5, align 8, !tbaa !4
  %8 = load ptr, ptr %4, align 8, !tbaa !4
  %9 = getelementptr inbounds nuw %struct.sockaddr_storage, ptr %8, i32 0, i32 0
  %10 = load i16, ptr %9, align 8, !tbaa !21
  %11 = zext i16 %10 to i32
  %12 = load ptr, ptr %5, align 8, !tbaa !4
  %13 = getelementptr inbounds nuw %struct.sockaddr_storage, ptr %12, i32 0, i32 0
  %14 = load i16, ptr %13, align 8, !tbaa !21
  %15 = zext i16 %14 to i32
  %16 = icmp ne i32 %11, %15
  br i1 %16, label %17, label %18

17:                                               ; preds = %2
  store i32 1, ptr %3, align 4
  br label %54

18:                                               ; preds = %2
  %19 = load ptr, ptr %4, align 8, !tbaa !4
  %20 = getelementptr inbounds nuw %struct.sockaddr_storage, ptr %19, i32 0, i32 0
  %21 = load i16, ptr %20, align 8, !tbaa !21
  %22 = zext i16 %21 to i32
  %23 = icmp eq i32 %22, 2
  br i1 %23, label %24, label %35

24:                                               ; preds = %18
  %25 = load ptr, ptr %4, align 8, !tbaa !4
  %26 = getelementptr inbounds nuw %struct.sockaddr_in, ptr %25, i32 0, i32 2
  %27 = getelementptr inbounds nuw %struct.in_addr, ptr %26, i32 0, i32 0
  %28 = load i32, ptr %27, align 4, !tbaa !25
  %29 = load ptr, ptr %5, align 8, !tbaa !4
  %30 = getelementptr inbounds nuw %struct.sockaddr_in, ptr %29, i32 0, i32 2
  %31 = getelementptr inbounds nuw %struct.in_addr, ptr %30, i32 0, i32 0
  %32 = load i32, ptr %31, align 4, !tbaa !25
  %33 = icmp ne i32 %28, %32
  %34 = zext i1 %33 to i32
  store i32 %34, ptr %3, align 4
  br label %54

35:                                               ; preds = %18
  %36 = load ptr, ptr %4, align 8, !tbaa !4
  %37 = getelementptr inbounds nuw %struct.sockaddr_storage, ptr %36, i32 0, i32 0
  %38 = load i16, ptr %37, align 8, !tbaa !21
  %39 = zext i16 %38 to i32
  %40 = icmp eq i32 %39, 10
  br i1 %40, label %41, label %53

41:                                               ; preds = %35
  call void @llvm.lifetime.start.p0(i64 8, ptr %6) #7
  %42 = load ptr, ptr %4, align 8, !tbaa !4
  %43 = getelementptr inbounds nuw %struct.sockaddr_in6, ptr %42, i32 0, i32 3
  %44 = getelementptr inbounds nuw %struct.in6_addr, ptr %43, i32 0, i32 0
  %45 = getelementptr inbounds [16 x i8], ptr %44, i64 0, i64 0
  store ptr %45, ptr %6, align 8, !tbaa !28
  call void @llvm.lifetime.start.p0(i64 8, ptr %7) #7
  %46 = load ptr, ptr %5, align 8, !tbaa !4
  %47 = getelementptr inbounds nuw %struct.sockaddr_in6, ptr %46, i32 0, i32 3
  %48 = getelementptr inbounds nuw %struct.in6_addr, ptr %47, i32 0, i32 0
  %49 = getelementptr inbounds [16 x i8], ptr %48, i64 0, i64 0
  store ptr %49, ptr %7, align 8, !tbaa !28
  %50 = load ptr, ptr %6, align 8, !tbaa !28
  %51 = load ptr, ptr %7, align 8, !tbaa !28
  %52 = call i32 @memcmp(ptr noundef %50, ptr noundef %51, i64 noundef 16) #8
  store i32 %52, ptr %3, align 4
  call void @llvm.lifetime.end.p0(i64 8, ptr %7) #7
  call void @llvm.lifetime.end.p0(i64 8, ptr %6) #7
  br label %54

53:                                               ; preds = %35
  store i32 1, ptr %3, align 4
  br label %54

54:                                               ; preds = %53, %41, %24, %17
  %55 = load i32, ptr %3, align 4
  ret i32 %55
}

; Function Attrs: nounwind uwtable
define i32 @ff_ip_check_source_lists(ptr noundef %0, ptr noundef %1) #0 {
  %3 = alloca i32, align 4
  %4 = alloca ptr, align 8
  %5 = alloca ptr, align 8
  %6 = alloca i32, align 4
  %7 = alloca i32, align 4
  store ptr %0, ptr %4, align 8, !tbaa !4
  store ptr %1, ptr %5, align 8, !tbaa !9
  call void @llvm.lifetime.start.p0(i64 4, ptr %6) #7
  %8 = load ptr, ptr %5, align 8, !tbaa !9
  %9 = getelementptr inbounds nuw %struct.IPSourceFilters, ptr %8, i32 0, i32 1
  %10 = load i32, ptr %9, align 4, !tbaa !11
  %11 = icmp ne i32 %10, 0
  br i1 %11, label %12, label %35

12:                                               ; preds = %2
  store i32 0, ptr %6, align 4, !tbaa !14
  br label %13

13:                                               ; preds = %31, %12
  %14 = load i32, ptr %6, align 4, !tbaa !14
  %15 = load ptr, ptr %5, align 8, !tbaa !9
  %16 = getelementptr inbounds nuw %struct.IPSourceFilters, ptr %15, i32 0, i32 1
  %17 = load i32, ptr %16, align 4, !tbaa !11
  %18 = icmp slt i32 %14, %17
  br i1 %18, label %19, label %34

19:                                               ; preds = %13
  %20 = load ptr, ptr %4, align 8, !tbaa !4
  %21 = load ptr, ptr %5, align 8, !tbaa !9
  %22 = getelementptr inbounds nuw %struct.IPSourceFilters, ptr %21, i32 0, i32 3
  %23 = load ptr, ptr %22, align 8, !tbaa !15
  %24 = load i32, ptr %6, align 4, !tbaa !14
  %25 = sext i32 %24 to i64
  %26 = getelementptr inbounds %struct.sockaddr_storage, ptr %23, i64 %25
  %27 = call i32 @compare_addr(ptr noundef %20, ptr noundef %26)
  %28 = icmp ne i32 %27, 0
  br i1 %28, label %30, label %29

29:                                               ; preds = %19
  store i32 1, ptr %3, align 4
  store i32 1, ptr %7, align 4
  br label %64

30:                                               ; preds = %19
  br label %31

31:                                               ; preds = %30
  %32 = load i32, ptr %6, align 4, !tbaa !14
  %33 = add nsw i32 %32, 1
  store i32 %33, ptr %6, align 4, !tbaa !14
  br label %13, !llvm.loop !16

34:                                               ; preds = %13
  br label %35

35:                                               ; preds = %34, %2
  %36 = load ptr, ptr %5, align 8, !tbaa !9
  %37 = getelementptr inbounds nuw %struct.IPSourceFilters, ptr %36, i32 0, i32 0
  %38 = load i32, ptr %37, align 8, !tbaa !18
  %39 = icmp ne i32 %38, 0
  br i1 %39, label %40, label %63

40:                                               ; preds = %35
  store i32 0, ptr %6, align 4, !tbaa !14
  br label %41

41:                                               ; preds = %59, %40
  %42 = load i32, ptr %6, align 4, !tbaa !14
  %43 = load ptr, ptr %5, align 8, !tbaa !9
  %44 = getelementptr inbounds nuw %struct.IPSourceFilters, ptr %43, i32 0, i32 0
  %45 = load i32, ptr %44, align 8, !tbaa !18
  %46 = icmp slt i32 %42, %45
  br i1 %46, label %47, label %62

47:                                               ; preds = %41
  %48 = load ptr, ptr %4, align 8, !tbaa !4
  %49 = load ptr, ptr %5, align 8, !tbaa !9
  %50 = getelementptr inbounds nuw %struct.IPSourceFilters, ptr %49, i32 0, i32 2
  %51 = load ptr, ptr %50, align 8, !tbaa !19
  %52 = load i32, ptr %6, align 4, !tbaa !14
  %53 = sext i32 %52 to i64
  %54 = getelementptr inbounds %struct.sockaddr_storage, ptr %51, i64 %53
  %55 = call i32 @compare_addr(ptr noundef %48, ptr noundef %54)
  %56 = icmp ne i32 %55, 0
  br i1 %56, label %58, label %57

57:                                               ; preds = %47
  store i32 0, ptr %3, align 4
  store i32 1, ptr %7, align 4
  br label %64

58:                                               ; preds = %47
  br label %59

59:                                               ; preds = %58
  %60 = load i32, ptr %6, align 4, !tbaa !14
  %61 = add nsw i32 %60, 1
  store i32 %61, ptr %6, align 4, !tbaa !14
  br label %41, !llvm.loop !20

62:                                               ; preds = %41
  store i32 1, ptr %3, align 4
  store i32 1, ptr %7, align 4
  br label %64

63:                                               ; preds = %35
  store i32 0, ptr %3, align 4
  store i32 1, ptr %7, align 4
  br label %64

64:                                               ; preds = %63, %62, %57, %29
  call void @llvm.lifetime.end.p0(i64 4, ptr %6) #7
  %65 = load i32, ptr %3, align 4
  ret i32 %65
}