; Function Attrs: nofree norecurse nounwind memory(read, inaccessiblemem: none) uwtable
define range(i32 0, 2) i32 @ff_ip_check_source_lists(ptr noundef readonly captures(none) %0, ptr noundef readonly captures(none) %1) local_unnamed_addr #0 {
  %3 = getelementptr inbounds nuw i8, ptr %1, i64 4
  %4 = load i32, ptr %3, align 4, !tbaa !4
  %5 = icmp sgt i32 %4, 0
  br i1 %5, label %.lr.ph, label %.loopexit29

.lr.ph:                                           ; preds = %2
  %6 = getelementptr inbounds nuw i8, ptr %1, i64 16
  %7 = load ptr, ptr %6, align 8, !tbaa !11
  %8 = load i16, ptr %0, align 8, !tbaa !12
  %.fr = freeze i16 %8
  %9 = getelementptr inbounds nuw i8, ptr %0, i64 8
  %10 = getelementptr inbounds nuw i8, ptr %0, i64 4
  switch i16 %.fr, label %.loopexit29 [
    i16 2, label %.lr.ph.split.us.preheader
    i16 10, label %.lr.ph.split.us32.preheader
  ]

.lr.ph.split.us32.preheader:                      ; preds = %.lr.ph
  %wide.trip.count = zext nneg i32 %4 to i64
  br label %.lr.ph.split.us32

.lr.ph.split.us.preheader:                        ; preds = %.lr.ph
  %wide.trip.count64 = zext nneg i32 %4 to i64
  br label %.lr.ph.split.us

.lr.ph.split.us:                                  ; preds = %.lr.ph.split.us.preheader, %compare_addr.exit.thread.us
  %indvars.iv61 = phi i64 [ 0, %.lr.ph.split.us.preheader ], [ %indvars.iv.next62, %compare_addr.exit.thread.us ]
  %11 = getelementptr inbounds nuw %struct.sockaddr_storage, ptr %7, i64 %indvars.iv61
  %12 = load i16, ptr %11, align 8, !tbaa !12
  %.not.i.us = icmp eq i16 %12, 2
  br i1 %.not.i.us, label %compare_addr.exit.us, label %compare_addr.exit.thread.us

compare_addr.exit.us:                             ; preds = %.lr.ph.split.us
  %13 = load i32, ptr %10, align 4, !tbaa !16
  %14 = getelementptr inbounds nuw i8, ptr %11, i64 4
  %15 = load i32, ptr %14, align 4, !tbaa !16
  %.not25.us = icmp eq i32 %13, %15
  br i1 %.not25.us, label %.loopexit, label %compare_addr.exit.thread.us

compare_addr.exit.thread.us:                      ; preds = %compare_addr.exit.us, %.lr.ph.split.us
  %indvars.iv.next62 = add nuw nsw i64 %indvars.iv61, 1
  %exitcond65.not = icmp eq i64 %indvars.iv.next62, %wide.trip.count64
  br i1 %exitcond65.not, label %.loopexit29, label %.lr.ph.split.us, !llvm.loop !19

.lr.ph.split.us32:                                ; preds = %.lr.ph.split.us32.preheader, %compare_addr.exit.thread.us37
  %indvars.iv = phi i64 [ 0, %.lr.ph.split.us32.preheader ], [ %indvars.iv.next, %compare_addr.exit.thread.us37 ]
  %16 = getelementptr inbounds nuw %struct.sockaddr_storage, ptr %7, i64 %indvars.iv
  %17 = load i16, ptr %16, align 8, !tbaa !12
  %.not.i.us34 = icmp eq i16 %17, 10
  br i1 %.not.i.us34, label %compare_addr.exit.us35, label %compare_addr.exit.thread.us37

compare_addr.exit.us35:                           ; preds = %.lr.ph.split.us32
  %18 = getelementptr inbounds nuw i8, ptr %16, i64 8
  %bcmp.us = tail call i32 @bcmp(ptr noundef nonnull dereferenceable(16) %9, ptr noundef nonnull dereferenceable(16) %18, i64 16)
  %19 = icmp eq i32 %bcmp.us, 0
  br i1 %19, label %.loopexit, label %compare_addr.exit.thread.us37

compare_addr.exit.thread.us37:                    ; preds = %compare_addr.exit.us35, %.lr.ph.split.us32
  %indvars.iv.next = add nuw nsw i64 %indvars.iv, 1
  %exitcond.not = icmp eq i64 %indvars.iv.next, %wide.trip.count
  br i1 %exitcond.not, label %.loopexit29, label %.lr.ph.split.us32, !llvm.loop !19

.loopexit29:                                      ; preds = %compare_addr.exit.thread.us37, %compare_addr.exit.thread.us, %.lr.ph, %2
  %20 = load i32, ptr %1, align 8, !tbaa !21
  %.not15 = icmp eq i32 %20, 0
  br i1 %.not15, label %.loopexit, label %.preheader

.preheader:                                       ; preds = %.loopexit29
  %21 = icmp sgt i32 %20, 0
  br i1 %21, label %.lr.ph39, label %.loopexit

.lr.ph39:                                         ; preds = %.preheader
  %22 = getelementptr inbounds nuw i8, ptr %1, i64 8
  %23 = load ptr, ptr %22, align 8, !tbaa !22
  %24 = load i16, ptr %0, align 8, !tbaa !12
  %.fr52 = freeze i16 %24
  %25 = getelementptr inbounds nuw i8, ptr %0, i64 8
  %26 = getelementptr inbounds nuw i8, ptr %0, i64 4
  switch i16 %.fr52, label %.loopexit [
    i16 2, label %.lr.ph39.split.us.preheader
    i16 10, label %.lr.ph39.split.us42.preheader
  ]

.lr.ph39.split.us42.preheader:                    ; preds = %.lr.ph39
  %wide.trip.count69 = zext nneg i32 %20 to i64
  br label %.lr.ph39.split.us42

.lr.ph39.split.us.preheader:                      ; preds = %.lr.ph39
  %wide.trip.count74 = zext nneg i32 %20 to i64
  br label %.lr.ph39.split.us

.lr.ph39.split.us:                                ; preds = %.lr.ph39.split.us.preheader, %compare_addr.exit20.thread.us
  %indvars.iv71 = phi i64 [ 0, %.lr.ph39.split.us.preheader ], [ %indvars.iv.next72, %compare_addr.exit20.thread.us ]
  %27 = getelementptr inbounds nuw %struct.sockaddr_storage, ptr %23, i64 %indvars.iv71
  %28 = load i16, ptr %27, align 8, !tbaa !12
  %.not.i18.us = icmp eq i16 %28, 2
  br i1 %.not.i18.us, label %compare_addr.exit20.us, label %compare_addr.exit20.thread.us

compare_addr.exit20.us:                           ; preds = %.lr.ph39.split.us
  %29 = load i32, ptr %26, align 4, !tbaa !16
  %30 = getelementptr inbounds nuw i8, ptr %27, i64 4
  %31 = load i32, ptr %30, align 4, !tbaa !16
  %.not26.us = icmp eq i32 %29, %31
  br i1 %.not26.us, label %.loopexit, label %compare_addr.exit20.thread.us

compare_addr.exit20.thread.us:                    ; preds = %compare_addr.exit20.us, %.lr.ph39.split.us
  %indvars.iv.next72 = add nuw nsw i64 %indvars.iv71, 1
  %exitcond75.not = icmp eq i64 %indvars.iv.next72, %wide.trip.count74
  br i1 %exitcond75.not, label %.loopexit, label %.lr.ph39.split.us, !llvm.loop !23

.lr.ph39.split.us42:                              ; preds = %.lr.ph39.split.us42.preheader, %compare_addr.exit20.thread.us47
  %indvars.iv66 = phi i64 [ 0, %.lr.ph39.split.us42.preheader ], [ %indvars.iv.next67, %compare_addr.exit20.thread.us47 ]
  %32 = getelementptr inbounds nuw %struct.sockaddr_storage, ptr %23, i64 %indvars.iv66
  %33 = load i16, ptr %32, align 8, !tbaa !12
  %.not.i18.us44 = icmp eq i16 %33, 10
  br i1 %.not.i18.us44, label %compare_addr.exit20.us45, label %compare_addr.exit20.thread.us47

compare_addr.exit20.us45:                         ; preds = %.lr.ph39.split.us42
  %34 = getelementptr inbounds nuw i8, ptr %32, i64 8
  %bcmp27.us = tail call i32 @bcmp(ptr noundef nonnull dereferenceable(16) %25, ptr noundef nonnull dereferenceable(16) %34, i64 16)
  %35 = icmp eq i32 %bcmp27.us, 0
  br i1 %35, label %.loopexit, label %compare_addr.exit20.thread.us47

compare_addr.exit20.thread.us47:                  ; preds = %compare_addr.exit20.us45, %.lr.ph39.split.us42
  %indvars.iv.next67 = add nuw nsw i64 %indvars.iv66, 1
  %exitcond70.not = icmp eq i64 %indvars.iv.next67, %wide.trip.count69
  br i1 %exitcond70.not, label %.loopexit, label %.lr.ph39.split.us42, !llvm.loop !23

.loopexit:                                        ; preds = %compare_addr.exit.us35, %compare_addr.exit.us, %compare_addr.exit20.us45, %compare_addr.exit20.thread.us47, %compare_addr.exit20.us, %compare_addr.exit20.thread.us, %.lr.ph39, %.preheader, %.loopexit29
  %.014 = phi i32 [ 0, %.loopexit29 ], [ 1, %.preheader ], [ 1, %.lr.ph39 ], [ 0, %compare_addr.exit20.us ], [ 1, %compare_addr.exit20.thread.us ], [ 0, %compare_addr.exit20.us45 ], [ 1, %compare_addr.exit20.thread.us47 ], [ 1, %compare_addr.exit.us ], [ 1, %compare_addr.exit.us35 ]
  ret i32 %.014
}